target datalayout = "e-m:e-p270:32:32-p271:32:32-p272:64:64-i64:64-i128:128-f80:128-n8:16:32:64-S128"
target triple = "x86_64-pc-linux-gnu"

%struct.job_record = type { i32, ptr, ptr, ptr, ptr, i16, i32, i32, i32, ptr, i32, ptr, ptr, i16, ptr, double, i64, ptr, ptr, ptr, ptr, ptr, ptr, i32, ptr, i32, i64, i64, i32, i32, ptr, i16, i64, i64, i8, i32, ptr, ptr, ptr, ptr, ptr, ptr, ptr, ptr, i32, ptr, ptr, i32, ptr, i32, ptr, i32, ptr, i32, ptr, ptr, ptr, ptr, ptr, ptr, i32, i16, i64, ptr, ptr, ptr, ptr, %struct.acct_policy_limit_set_t, i16, ptr, ptr, ptr, ptr, ptr, i32, ptr, ptr, ptr, ptr, ptr, i32, i32, ptr, ptr, ptr, i16, ptr, ptr, i8, ptr, ptr, i64, i64, i8, i32, i32, i8, i32, ptr, i32, i64, i32, ptr, ptr, ptr, i8, i16, i64, i32, ptr, ptr, ptr, ptr, ptr, i16, i32, ptr, ptr, ptr, ptr, i32, ptr, i32, i16, i64, ptr, i32, i32, ptr, i64, ptr, ptr, i64, i32, i32, i64, i32, i32, ptr, ptr, ptr, ptr, ptr, ptr, ptr, ptr, ptr, ptr, ptr, ptr, i32, ptr, i16, i16, i16, i16, ptr, i32, i32, i8, i64 }
%struct.acct_policy_limit_set_t = type { i16, i16, ptr }

@job_list = dso_local global ptr null, align 8
@resv_list = external global ptr, align 8

; Function Attrs: nounwind uwtable
define dso_local zeroext i1 @partition_in_use(ptr noundef %0) #0 {
  %2 = alloca i1, align 1
  %3 = alloca ptr, align 8
  %4 = alloca ptr, align 8
  %5 = alloca ptr, align 8
  %6 = alloca ptr, align 8
  %7 = alloca i32, align 4
  store ptr %0, ptr %3, align 8
  call void @llvm.lifetime.start.p0(i64 8, ptr %4) #13
  call void @llvm.lifetime.start.p0(i64 8, ptr %5) #13
  call void @llvm.lifetime.start.p0(i64 8, ptr %6) #13
  %8 = load ptr, ptr %3, align 8
  %9 = call ptr @find_part_record(ptr noundef %8)
  store ptr %9, ptr %6, align 8
  %10 = load ptr, ptr %6, align 8
  %11 = icmp eq ptr %10, null
  br i1 %11, label %12, label %13

12:                                               ; preds = %1
  store i1 false, ptr %2, align 1
  store i32 1, ptr %7, align 4
  br label %44

13:                                               ; preds = %1
  %14 = load ptr, ptr @job_list, align 8
  %15 = call ptr @list_iterator_create(ptr noundef %14)
  store ptr %15, ptr %4, align 8
  br label %16

16:                                               ; preds = %35, %13
  %17 = load ptr, ptr %4, align 8
  %18 = call ptr @list_next(ptr noundef %17)
  store ptr %18, ptr %5, align 8
  %19 = icmp ne ptr %18, null
  br i1 %19, label %20, label %36

20:                                               ; preds = %16
  %21 = load ptr, ptr %5, align 8
  %22 = getelementptr inbounds nuw %struct.job_record, ptr %21, i32 0, i32 89
  %23 = load ptr, ptr %22, align 8
  %24 = load ptr, ptr %6, align 8
  %25 = icmp eq ptr %23, %24
  br i1 %25, label %26, label %35

26:                                               ; preds = %20
  %27 = load ptr, ptr %5, align 8
  %28 = getelementptr inbounds nuw %struct.job_record, ptr %27, i32 0, i32 60
  %29 = load i32, ptr %28, align 8
  %30 = and i32 %29, 255
  %31 = icmp ugt i32 %30, 2
  br i1 %31, label %34, label %32

32:                                               ; preds = %26
  %33 = load ptr, ptr %4, align 8
  call void @list_iterator_destroy(ptr noundef %33)
  store i1 true, ptr %2, align 1
  store i32 1, ptr %7, align 4
  br label %44

34:                                               ; preds = %26
  br label %35

35:                                               ; preds = %34, %20
  br label %16, !llvm.loop !28

36:                                               ; preds = %16
  %37 = load ptr, ptr %4, align 8
  call void @list_iterator_destroy(ptr noundef %37)
  %38 = load ptr, ptr @resv_list, align 8
  %39 = load ptr, ptr %6, align 8
  %40 = call ptr @list_find_first(ptr noundef %38, ptr noundef @_find_resv_part, ptr noundef %39)
  %41 = icmp ne ptr %40, null
  br i1 %41, label %42, label %43

42:                                               ; preds = %36
  store i1 true, ptr %2, align 1
  store i32 1, ptr %7, align 4
  br label %44

43:                                               ; preds = %36
  store i1 false, ptr %2, align 1
  store i32 1, ptr %7, align 4
  br label %44

44:                                               ; preds = %43, %42, %32, %12
  call void @llvm.lifetime.end.p0(i64 8, ptr %6) #13
  call void @llvm.lifetime.end.p0(i64 8, ptr %5) #13
  call void @llvm.lifetime.end.p0(i64 8, ptr %4) #13
  %45 = load i1, ptr %2, align 1
  ret i1 %45
}