; Function Attrs: nounwind uwtable
define dso_local zeroext i1 @partition_in_use(ptr noundef %0) local_unnamed_addr #0 {
  %2 = tail call ptr @find_part_record(ptr noundef %0) #27
  %3 = icmp eq ptr %2, null
  br i1 %3, label %22, label %4

4:                                                ; preds = %1
  %5 = load ptr, ptr @job_list, align 8
  %6 = tail call ptr @list_iterator_create(ptr noundef %5) #27
  %7 = tail call ptr @list_next(ptr noundef %6) #27
  %.not13 = icmp eq ptr %7, null
  br i1 %.not13, label %._crit_edge, label %.lr.ph

.lr.ph:                                           ; preds = %4, %18
  %8 = phi ptr [ %19, %18 ], [ %7, %4 ]
  %9 = getelementptr inbounds nuw i8, ptr %8, i64 672
  %10 = load ptr, ptr %9, align 8
  %11 = icmp eq ptr %10, %2
  br i1 %11, label %12, label %18

12:                                               ; preds = %.lr.ph
  %13 = getelementptr inbounds nuw i8, ptr %8, i64 448
  %14 = load i32, ptr %13, align 8
  %15 = and i32 %14, 255
  %16 = icmp samesign ugt i32 %15, 2
  br i1 %16, label %18, label %17

17:                                               ; preds = %12
  tail call void @list_iterator_destroy(ptr noundef %6) #27
  br label %22

18:                                               ; preds = %12, %.lr.ph
  %19 = tail call ptr @list_next(ptr noundef %6) #27
  %.not = icmp eq ptr %19, null
  br i1 %.not, label %._crit_edge, label %.lr.ph, !llvm.loop !29

._crit_edge:                                      ; preds = %18, %4
  tail call void @list_iterator_destroy(ptr noundef %6) #27
  %20 = load ptr, ptr @resv_list, align 8
  %21 = tail call ptr @list_find_first(ptr noundef %20, ptr noundef nonnull @_find_resv_part, ptr noundef nonnull %2) #27
  %.not12 = icmp ne ptr %21, null
  br label %22

22:                                               ; preds = %._crit_edge, %1, %17
  %.0 = phi i1 [ true, %17 ], [ false, %1 ], [ %.not12, %._crit_edge ]
  ret i1 %.0
}